; Function Attrs: mustprogress uwtable
define hidden void @_ZN13hilbert_basis10init_basisEv(ptr noundef nonnull align 8 dereferenceable(127) %this) local_unnamed_addr #3 align 2 {
entry:
  %ref.tmp = alloca %class.checked_int64, align 8
  %ref.tmp9 = alloca %class.checked_int64, align 8
  %m_basis = getelementptr inbounds i8, ptr %this, i64 32
  %0 = load ptr, ptr %m_basis, align 8
  %tobool.not.i = icmp eq ptr %0, null
  br i1 %tobool.not.i, label %_ZN6vectorIN13hilbert_basis8offset_tELb0EjE5resetEv.exit, label %if.then.i

if.then.i:                                        ; preds = %entry
  %arrayidx.i = getelementptr inbounds i8, ptr %0, i64 -4
  store i32 0, ptr %arrayidx.i, align 4
  br label %_ZN6vectorIN13hilbert_basis8offset_tELb0EjE5resetEv.exit

_ZN6vectorIN13hilbert_basis8offset_tELb0EjE5resetEv.exit: ; preds = %entry, %if.then.i
  %m_store = getelementptr inbounds i8, ptr %this, i64 24
  %1 = load ptr, ptr %m_store, align 8
  %tobool.not.i5 = icmp eq ptr %1, null
  br i1 %tobool.not.i5, label %_ZN6vectorI13checked_int64ILb1EELb1EjE5resetEv.exit, label %if.then.i6

if.then.i6:                                       ; preds = %_ZN6vectorIN13hilbert_basis8offset_tELb0EjE5resetEv.exit
  %arrayidx.i7 = getelementptr inbounds i8, ptr %1, i64 -4
  store i32 0, ptr %arrayidx.i7, align 4
  br label %_ZN6vectorI13checked_int64ILb1EELb1EjE5resetEv.exit

_ZN6vectorI13checked_int64ILb1EELb1EjE5resetEv.exit: ; preds = %_ZN6vectorIN13hilbert_basis8offset_tELb0EjE5resetEv.exit, %if.then.i6
  %m_free_list = getelementptr inbounds i8, ptr %this, i64 40
  %2 = load ptr, ptr %m_free_list, align 8
  %tobool.not.i8 = icmp eq ptr %2, null
  br i1 %tobool.not.i8, label %_ZN6vectorIN13hilbert_basis8offset_tELb0EjE5resetEv.exit11, label %if.then.i9

if.then.i9:                                       ; preds = %_ZN6vectorI13checked_int64ILb1EELb1EjE5resetEv.exit
  %arrayidx.i10 = getelementptr inbounds i8, ptr %2, i64 -4
  store i32 0, ptr %arrayidx.i10, align 4
  br label %_ZN6vectorIN13hilbert_basis8offset_tELb0EjE5resetEv.exit11

_ZN6vectorIN13hilbert_basis8offset_tELb0EjE5resetEv.exit11: ; preds = %_ZN6vectorI13checked_int64ILb1EELb1EjE5resetEv.exit, %if.then.i9
  %m_ineqs.i = getelementptr inbounds i8, ptr %this, i64 8
  %3 = load ptr, ptr %m_ineqs.i, align 8
  %cmp.i.i = icmp eq ptr %3, null
  br i1 %cmp.i.i, label %for.cond3.preheader, label %_ZNK6vectorIS_I13checked_int64ILb1EELb1EjELb1EjE5emptyEv.exit.i

_ZNK6vectorIS_I13checked_int64ILb1EELb1EjELb1EjE5emptyEv.exit.i: ; preds = %_ZN6vectorIN13hilbert_basis8offset_tELb0EjE5resetEv.exit11
  %arrayidx.i.i = getelementptr inbounds i8, ptr %3, i64 -4
  %4 = load i32, ptr %arrayidx.i.i, align 4
  %cmp3.i.i = icmp eq i32 %4, 0
  br i1 %cmp3.i.i, label %for.cond3.preheader, label %_ZNK6vectorIS_I13checked_int64ILb1EELb1EjELb1EjE4backEv.exit.i

_ZNK6vectorIS_I13checked_int64ILb1EELb1EjELb1EjE4backEv.exit.i: ; preds = %_ZNK6vectorIS_I13checked_int64ILb1EELb1EjELb1EjE5emptyEv.exit.i
  %5 = add i32 %4, -1
  %6 = zext i32 %5 to i64
  %arrayidx.i1.i.i = getelementptr inbounds %class.vector.1, ptr %3, i64 %6
  %7 = load ptr, ptr %arrayidx.i1.i.i, align 8
  %cmp.i1.i = icmp eq ptr %7, null
  br i1 %cmp.i1.i, label %for.cond3.preheader, label %_ZNK13hilbert_basis12get_num_varsEv.exit

_ZNK13hilbert_basis12get_num_varsEv.exit:         ; preds = %_ZNK6vectorIS_I13checked_int64ILb1EELb1EjELb1EjE4backEv.exit.i
  %arrayidx.i2.i = getelementptr inbounds i8, ptr %7, i64 -4
  %8 = load i32, ptr %arrayidx.i2.i, align 4
  %cmp15.not = icmp eq i32 %8, 0
  br i1 %cmp15.not, label %for.cond3.preheader, label %for.body

for.cond3.preheader:                              ; preds = %for.body, %_ZN6vectorIN13hilbert_basis8offset_tELb0EjE5resetEv.exit11, %_ZNK6vectorIS_I13checked_int64ILb1EELb1EjELb1EjE4backEv.exit.i, %_ZNK6vectorIS_I13checked_int64ILb1EELb1EjELb1EjE5emptyEv.exit.i, %_ZNK13hilbert_basis12get_num_varsEv.exit
  %m_ints = getelementptr inbounds i8, ptr %this, i64 112
  br label %for.cond3

for.body:                                         ; preds = %_ZNK13hilbert_basis12get_num_varsEv.exit, %for.body
  %i.016 = phi i32 [ %inc, %for.body ], [ 0, %_ZNK13hilbert_basis12get_num_varsEv.exit ]
  store i64 1, ptr %ref.tmp, align 8
  call void @_ZN13hilbert_basis15add_unit_vectorEjRK13checked_int64ILb1EE(ptr noundef nonnull align 8 dereferenceable(127) %this, i32 noundef %i.016, ptr noundef nonnull align 8 dereferenceable(8) %ref.tmp)
  %inc = add nuw i32 %i.016, 1
  %exitcond.not = icmp eq i32 %inc, %8
  br i1 %exitcond.not, label %for.cond3.preheader, label %for.body, !llvm.loop !18

for.cond3:                                        ; preds = %for.cond3.preheader, %for.body6
  %indvars.iv = phi i64 [ 0, %for.cond3.preheader ], [ %indvars.iv.next, %for.body6 ]
  %9 = load ptr, ptr %m_ints, align 8
  %cmp.i = icmp eq ptr %9, null
  br i1 %cmp.i, label %_ZNK6vectorIjLb0EjE4sizeEv.exit, label %if.end.i

if.end.i:                                         ; preds = %for.cond3
  %arrayidx.i12 = getelementptr inbounds i8, ptr %9, i64 -4
  %10 = load i32, ptr %arrayidx.i12, align 4
  br label %_ZNK6vectorIjLb0EjE4sizeEv.exit

_ZNK6vectorIjLb0EjE4sizeEv.exit:                  ; preds = %for.cond3, %if.end.i
  %retval.0.i13 = phi i32 [ %10, %if.end.i ], [ 0, %for.cond3 ]
  %11 = zext i32 %retval.0.i13 to i64
  %cmp5 = icmp ult i64 %indvars.iv, %11
  br i1 %cmp5, label %for.body6, label %for.end12

for.body6:                                        ; preds = %_ZNK6vectorIjLb0EjE4sizeEv.exit
  %arrayidx.i14 = getelementptr inbounds i32, ptr %9, i64 %indvars.iv
  %12 = load i32, ptr %arrayidx.i14, align 4
  store i64 -1, ptr %ref.tmp9, align 8
  call void @_ZN13hilbert_basis15add_unit_vectorEjRK13checked_int64ILb1EE(ptr noundef nonnull align 8 dereferenceable(127) %this, i32 noundef %12, ptr noundef nonnull align 8 dereferenceable(8) %ref.tmp9)
  %indvars.iv.next = add nuw nsw i64 %indvars.iv, 1
  br label %for.cond3, !llvm.loop !19

for.end12:                                        ; preds = %_ZNK6vectorIjLb0EjE4sizeEv.exit
  ret void
}